target datalayout = "e-m:e-p270:32:32-p271:32:32-p272:64:64-i64:64-i128:128-f80:128-n8:16:32:64-S128"
target triple = "x86_64-pc-linux-gnu"

%"class.llvm::GEPNoWrapFlags" = type { i32 }

; Function Attrs: mustprogress nounwind uwtable
define linkonce_odr hidden noundef ptr @_ZN4llvm16cast_convert_valINS_17GetElementPtrInstEPNS_5ValueES3_E4doitEPKS2_(ptr noundef %0) #0 comdat align 2 {
  %2 = alloca ptr, align 8
  store ptr %0, ptr %2, align 8
  %3 = load ptr, ptr %2, align 8
  ret ptr %3
}

; Function Attrs: mustprogress nounwind uwtable
define linkonce_odr hidden void @_ZN4llvm14GEPNoWrapFlagsC2Ej(ptr noundef nonnull align 4 dereferenceable(4) %0, i32 noundef %1) unnamed_addr #0 comdat align 2 {
  %3 = alloca ptr, align 8
  %4 = alloca i32, align 4
  store ptr %0, ptr %3, align 8
  store i32 %1, ptr %4, align 4
  %5 = load ptr, ptr %3, align 8
  %6 = getelementptr inbounds nuw %"class.llvm::GEPNoWrapFlags", ptr %5, i32 0, i32 0
  %7 = load i32, ptr %4, align 4
  store i32 %7, ptr %6, align 4
  ret void
}

; Function Attrs: mustprogress nounwind uwtable
define linkonce_odr hidden noundef ptr @_ZN4llvm8CastInfoINS_17GetElementPtrInstEPNS_5ValueEvE6doCastERKS3_(ptr noundef nonnull align 8 dereferenceable(8) %0) #0 comdat align 2 {
  %2 = alloca ptr, align 8
  store ptr %0, ptr %2, align 8
  %3 = load ptr, ptr %2, align 8
  %4 = load ptr, ptr %3, align 8
  %5 = call noundef ptr @_ZN4llvm16cast_convert_valINS_17GetElementPtrInstEPNS_5ValueES3_E4doitEPKS2_(ptr noundef %4)
  ret ptr %5
}

; Function Attrs: mustprogress nounwind uwtable
define linkonce_odr hidden i32 @_ZN4llvm14GEPNoWrapFlags14noUnsignedWrapEv() #0 comdat align 2 {
  %1 = alloca %"class.llvm::GEPNoWrapFlags", align 4
  call void @_ZN4llvm14GEPNoWrapFlagsC2Ej(ptr noundef nonnull align 4 dereferenceable(4) %1, i32 noundef 4)
  %2 = getelementptr inbounds nuw %"class.llvm::GEPNoWrapFlags", ptr %1, i32 0, i32 0
  %3 = load i32, ptr %2, align 4
  ret i32 %3
}

; Function Attrs: mustprogress nounwind uwtable
define linkonce_odr hidden i32 @_ZN4llvm14GEPNoWrapFlags20noUnsignedSignedWrapEv() #0 comdat align 2 {
  %1 = alloca %"class.llvm::GEPNoWrapFlags", align 4
  call void @_ZN4llvm14GEPNoWrapFlagsC2Ej(ptr noundef nonnull align 4 dereferenceable(4) %1, i32 noundef 2)
  %2 = getelementptr inbounds nuw %"class.llvm::GEPNoWrapFlags", ptr %1, i32 0, i32 0
  %3 = load i32, ptr %2, align 4
  ret i32 %3
}

; Function Attrs: mustprogress nounwind uwtable
define linkonce_odr hidden noundef nonnull align 4 dereferenceable(4) ptr @_ZN4llvm14GEPNoWrapFlagsoRES0_(ptr noundef nonnull align 4 dereferenceable(4) %0, i32 %1) #0 comdat align 2 {
  %3 = alloca %"class.llvm::GEPNoWrapFlags", align 4
  %4 = alloca ptr, align 8
  %5 = getelementptr inbounds nuw %"class.llvm::GEPNoWrapFlags", ptr %3, i32 0, i32 0
  store i32 %1, ptr %5, align 4
  store ptr %0, ptr %4, align 8
  %6 = load ptr, ptr %4, align 8
  %7 = getelementptr inbounds nuw %"class.llvm::GEPNoWrapFlags", ptr %3, i32 0, i32 0
  %8 = load i32, ptr %7, align 4
  %9 = getelementptr inbounds nuw %"class.llvm::GEPNoWrapFlags", ptr %6, i32 0, i32 0
  %10 = load i32, ptr %9, align 4
  %11 = or i32 %10, %8
  store i32 %11, ptr %9, align 4
  ret ptr %6
}

; Function Attrs: mustprogress nounwind uwtable
define linkonce_odr hidden i32 @_ZN4llvm14GEPNoWrapFlags8inBoundsEv() #0 comdat align 2 {
  %1 = alloca %"class.llvm::GEPNoWrapFlags", align 4
  call void @_ZN4llvm14GEPNoWrapFlagsC2Ej(ptr noundef nonnull align 4 dereferenceable(4) %1, i32 noundef 3)
  %2 = getelementptr inbounds nuw %"class.llvm::GEPNoWrapFlags", ptr %1, i32 0, i32 0
  %3 = load i32, ptr %2, align 4
  ret i32 %3
}

; Function Attrs: mustprogress nounwind uwtable
define linkonce_odr hidden void @_ZN4llvm14GEPNoWrapFlagsC2Ev(ptr noundef nonnull align 4 dereferenceable(4) %0) unnamed_addr #0 comdat align 2 {
  %2 = alloca ptr, align 8
  store ptr %0, ptr %2, align 8
  %3 = load ptr, ptr %2, align 8
  %4 = getelementptr inbounds nuw %"class.llvm::GEPNoWrapFlags", ptr %3, i32 0, i32 0
  store i32 0, ptr %4, align 4
  ret void
}

; Function Attrs: mustprogress nounwind uwtable
define linkonce_odr hidden noundef ptr @_ZN4llvm4castINS_17GetElementPtrInstENS_5ValueEEEDcPT0_(ptr noundef %0) #0 comdat {
  %2 = alloca ptr, align 8
  store ptr %0, ptr %2, align 8
  %3 = call noundef ptr @_ZN4llvm8CastInfoINS_17GetElementPtrInstEPNS_5ValueEvE6doCastERKS3_(ptr noundef nonnull align 8 dereferenceable(8) %2)
  ret ptr %3
}

; Function Attrs: mustprogress nounwind uwtable
define linkonce_odr hidden noundef ptr @_ZN4llvm6unwrapEP15LLVMOpaqueValue(ptr noundef %0) #0 comdat {
  %2 = alloca ptr, align 8
  store ptr %0, ptr %2, align 8
  %3 = load ptr, ptr %2, align 8
  ret ptr %3
}

; Function Attrs: mustprogress nounwind uwtable
define internal i32 @_ZL25mapFromLLVMGEPNoWrapFlagsj(i32 noundef %0) #0 {
  %2 = alloca %"class.llvm::GEPNoWrapFlags", align 4
  %3 = alloca i32, align 4
  %4 = alloca %"class.llvm::GEPNoWrapFlags", align 4
  %5 = alloca %"class.llvm::GEPNoWrapFlags", align 4
  %6 = alloca %"class.llvm::GEPNoWrapFlags", align 4
  store i32 %0, ptr %3, align 4
  call void @_ZN4llvm14GEPNoWrapFlagsC2Ev(ptr noundef nonnull align 4 dereferenceable(4) %2)
  %7 = load i32, ptr %3, align 4
  %8 = and i32 %7, 1
  %9 = icmp ne i32 %8, 0
  br i1 %9, label %10, label %16

10:                                               ; preds = %1
  %11 = call i32 @_ZN4llvm14GEPNoWrapFlags8inBoundsEv()
  %12 = getelementptr inbounds nuw %"class.llvm::GEPNoWrapFlags", ptr %4, i32 0, i32 0
  store i32 %11, ptr %12, align 4
  %13 = getelementptr inbounds nuw %"class.llvm::GEPNoWrapFlags", ptr %4, i32 0, i32 0
  %14 = load i32, ptr %13, align 4
  %15 = call noundef nonnull align 4 dereferenceable(4) ptr @_ZN4llvm14GEPNoWrapFlagsoRES0_(ptr noundef nonnull align 4 dereferenceable(4) %2, i32 %14)
  br label %16

16:                                               ; preds = %10, %1
  %17 = load i32, ptr %3, align 4
  %18 = and i32 %17, 2
  %19 = icmp ne i32 %18, 0
  br i1 %19, label %20, label %26

20:                                               ; preds = %16
  %21 = call i32 @_ZN4llvm14GEPNoWrapFlags20noUnsignedSignedWrapEv()
  %22 = getelementptr inbounds nuw %"class.llvm::GEPNoWrapFlags", ptr %5, i32 0, i32 0
  store i32 %21, ptr %22, align 4
  %23 = getelementptr inbounds nuw %"class.llvm::GEPNoWrapFlags", ptr %5, i32 0, i32 0
  %24 = load i32, ptr %23, align 4
  %25 = call noundef nonnull align 4 dereferenceable(4) ptr @_ZN4llvm14GEPNoWrapFlagsoRES0_(ptr noundef nonnull align 4 dereferenceable(4) %2, i32 %24)
  br label %26

26:                                               ; preds = %20, %16
  %27 = load i32, ptr %3, align 4
  %28 = and i32 %27, 4
  %29 = icmp ne i32 %28, 0
  br i1 %29, label %30, label %36

30:                                               ; preds = %26
  %31 = call i32 @_ZN4llvm14GEPNoWrapFlags14noUnsignedWrapEv()
  %32 = getelementptr inbounds nuw %"class.llvm::GEPNoWrapFlags", ptr %6, i32 0, i32 0
  store i32 %31, ptr %32, align 4
  %33 = getelementptr inbounds nuw %"class.llvm::GEPNoWrapFlags", ptr %6, i32 0, i32 0
  %34 = load i32, ptr %33, align 4
  %35 = call noundef nonnull align 4 dereferenceable(4) ptr @_ZN4llvm14GEPNoWrapFlagsoRES0_(ptr noundef nonnull align 4 dereferenceable(4) %2, i32 %34)
  br label %36

36:                                               ; preds = %30, %26
  %37 = getelementptr inbounds nuw %"class.llvm::GEPNoWrapFlags", ptr %2, i32 0, i32 0
  %38 = load i32, ptr %37, align 4
  ret i32 %38
}

; Function Attrs: mustprogress nounwind uwtable
define linkonce_odr hidden noundef ptr @_ZN4llvm6unwrapINS_17GetElementPtrInstEEEPT_P15LLVMOpaqueValue(ptr noundef %0) #0 comdat {
  %2 = alloca ptr, align 8
  store ptr %0, ptr %2, align 8
  %3 = load ptr, ptr %2, align 8
  %4 = call noundef ptr @_ZN4llvm6unwrapEP15LLVMOpaqueValue(ptr noundef %3)
  %5 = call noundef ptr @_ZN4llvm4castINS_17GetElementPtrInstENS_5ValueEEEDcPT0_(ptr noundef %4)
  ret ptr %5
}

; Function Attrs: mustprogress nounwind uwtable
define dso_local void @LLVMGEPSetNoWrapFlags(ptr noundef %0, i32 noundef %1) #0 {
  %3 = alloca ptr, align 8
  %4 = alloca i32, align 4
  %5 = alloca ptr, align 8
  %6 = alloca %"class.llvm::GEPNoWrapFlags", align 4
  store ptr %0, ptr %3, align 8
  store i32 %1, ptr %4, align 4
  %7 = load ptr, ptr %3, align 8
  %8 = call noundef ptr @_ZN4llvm6unwrapINS_17GetElementPtrInstEEEPT_P15LLVMOpaqueValue(ptr noundef %7)
  store ptr %8, ptr %5, align 8
  %9 = load ptr, ptr %5, align 8
  %10 = load i32, ptr %4, align 4
  %11 = call i32 @_ZL25mapFromLLVMGEPNoWrapFlagsj(i32 noundef %10)
  %12 = getelementptr inbounds nuw %"class.llvm::GEPNoWrapFlags", ptr %6, i32 0, i32 0
  store i32 %11, ptr %12, align 4
  %13 = getelementptr inbounds nuw %"class.llvm::GEPNoWrapFlags", ptr %6, i32 0, i32 0
  %14 = load i32, ptr %13, align 4
  call void @_ZN4llvm17GetElementPtrInst14setNoWrapFlagsENS_14GEPNoWrapFlagsE(ptr noundef nonnull align 8 dereferenceable(88) %9, i32 %14)
  ret void
}