; Function Attrs: mustprogress nounwind uwtable
define dso_local void @LLVMGEPSetNoWrapFlags(ptr noundef nonnull %0, i32 noundef %1) local_unnamed_addr #0 {
  %3 = and i32 %1, 1
  %.not.i = icmp eq i32 %3, 0
  %spec.select.i = select i1 %.not.i, i32 0, i32 3
  %4 = and i32 %1, 6
  %.sroa.0.2.i = or i32 %spec.select.i, %4
  tail call void @_ZN4llvm17GetElementPtrInst14setNoWrapFlagsENS_14GEPNoWrapFlagsE(ptr noundef nonnull align 8 dereferenceable(88) %0, i32 %.sroa.0.2.i) #35
  ret void
}